; Function Attrs: mustprogress uwtable
define hidden void @_ZNK16fpa2bv_converter8split_fpEP4exprR7obj_refIS0_11ast_managerES5_S5_(ptr noundef nonnull readonly align 8 captures(none) dereferenceable(496) %0, ptr noundef readonly captures(none) %1, ptr noundef nonnull align 8 captures(none) dereferenceable(16) %2, ptr noundef nonnull align 8 captures(none) dereferenceable(16) %3, ptr noundef nonnull align 8 captures(none) dereferenceable(16) %4) local_unnamed_addr #3 align 2 {
  %6 = getelementptr inbounds nuw i8, ptr %0, i64 304
  %7 = load i32, ptr %6, align 8, !tbaa !158
  %8 = getelementptr inbounds nuw i8, ptr %1, i64 4
  %9 = load i32, ptr %8, align 4
  %10 = and i32 %9, 65535
  %11 = icmp eq i32 %10, 0
  br i1 %11, label %12, label %.thread

12:                                               ; preds = %5
  %13 = getelementptr inbounds nuw i8, ptr %1, i64 16
  %14 = load ptr, ptr %13, align 8, !tbaa !149
  %15 = getelementptr inbounds nuw i8, ptr %14, i64 24
  %16 = load ptr, ptr %15, align 8, !tbaa !157
  %.not.i.i.i.i.i = icmp eq ptr %16, null
  br i1 %.not.i.i.i.i.i, label %.thread, label %_ZNK8fpa_util5is_fpEPK4expr.exit.i

_ZNK8fpa_util5is_fpEPK4expr.exit.i:               ; preds = %12
  %17 = load i32, ptr %16, align 8, !tbaa !159
  %18 = icmp eq i32 %17, %7
  %19 = getelementptr inbounds nuw i8, ptr %16, i64 4
  %20 = load i32, ptr %19, align 4
  %21 = icmp eq i32 %20, 37
  %22 = select i1 %18, i1 %21, i1 false
  br i1 %22, label %23, label %.thread

23:                                               ; preds = %_ZNK8fpa_util5is_fpEPK4expr.exit.i
  %24 = getelementptr inbounds nuw i8, ptr %1, i64 24
  %25 = load i32, ptr %24, align 8, !tbaa !177
  %26 = icmp eq i32 %25, 3
  br i1 %26, label %27, label %.thread

.thread:                                          ; preds = %12, %5, %_ZNK8fpa_util5is_fpEPK4expr.exit.i, %23
  tail call void @_Z26notify_assertion_violationPKciS0_(ptr noundef nonnull @.str.6, i32 noundef 3586, ptr noundef nonnull @.str.278)
  tail call void @_Z18invoke_exit_actionj(i32 noundef 114)
  br label %37

27:                                               ; preds = %23
  %28 = getelementptr inbounds nuw i8, ptr %1, i64 32
  %29 = load ptr, ptr %28, align 8, !tbaa !122
  %30 = getelementptr inbounds nuw i8, ptr %1, i64 40
  %31 = load ptr, ptr %30, align 8, !tbaa !122
  %32 = getelementptr inbounds nuw i8, ptr %1, i64 48
  %33 = load ptr, ptr %32, align 8, !tbaa !122
  %.not.i = icmp eq ptr %29, null
  br i1 %.not.i, label %37, label %_ZN11ast_manager7inc_refEP3ast.exit.i

_ZN11ast_manager7inc_refEP3ast.exit.i:            ; preds = %27
  %34 = getelementptr inbounds nuw i8, ptr %29, i64 8
  %35 = load i32, ptr %34, align 4, !tbaa !125
  %36 = add i32 %35, 1
  store i32 %36, ptr %34, align 4, !tbaa !125
  br label %37

37:                                               ; preds = %.thread, %_ZN11ast_manager7inc_refEP3ast.exit.i, %27
  %.0162233 = phi ptr [ null, %.thread ], [ %29, %_ZN11ast_manager7inc_refEP3ast.exit.i ], [ null, %27 ]
  %.0152432 = phi ptr [ null, %.thread ], [ %31, %_ZN11ast_manager7inc_refEP3ast.exit.i ], [ %31, %27 ]
  %.02631 = phi ptr [ null, %.thread ], [ %33, %_ZN11ast_manager7inc_refEP3ast.exit.i ], [ %33, %27 ]
  %38 = load ptr, ptr %2, align 8, !tbaa !164
  %.not.i4.i = icmp eq ptr %38, null
  br i1 %.not.i4.i, label %_ZN7obj_refI4expr11ast_managerEaSEPS0_.exit, label %39

39:                                               ; preds = %37
  %40 = getelementptr inbounds nuw i8, ptr %2, i64 8
  %41 = load ptr, ptr %40, align 8, !tbaa !166
  %42 = getelementptr inbounds nuw i8, ptr %38, i64 8
  %43 = load i32, ptr %42, align 4, !tbaa !125
  %44 = add i32 %43, -1
  store i32 %44, ptr %42, align 4, !tbaa !125
  %45 = icmp eq i32 %44, 0
  br i1 %45, label %46, label %_ZN7obj_refI4expr11ast_managerEaSEPS0_.exit

46:                                               ; preds = %39
  tail call void @_ZN11ast_manager11delete_nodeEP3ast(ptr noundef nonnull align 8 dereferenceable(976) %41, ptr noundef nonnull %38)
  br label %_ZN7obj_refI4expr11ast_managerEaSEPS0_.exit

_ZN7obj_refI4expr11ast_managerEaSEPS0_.exit:      ; preds = %37, %39, %46
  store ptr %.0162233, ptr %2, align 8, !tbaa !164
  %.not.i5 = icmp eq ptr %.0152432, null
  br i1 %.not.i5, label %50, label %_ZN11ast_manager7inc_refEP3ast.exit.i6

_ZN11ast_manager7inc_refEP3ast.exit.i6:           ; preds = %_ZN7obj_refI4expr11ast_managerEaSEPS0_.exit
  %47 = getelementptr inbounds nuw i8, ptr %.0152432, i64 8
  %48 = load i32, ptr %47, align 4, !tbaa !125
  %49 = add i32 %48, 1
  store i32 %49, ptr %47, align 4, !tbaa !125
  br label %50

50:                                               ; preds = %_ZN11ast_manager7inc_refEP3ast.exit.i6, %_ZN7obj_refI4expr11ast_managerEaSEPS0_.exit
  %51 = load ptr, ptr %3, align 8, !tbaa !164
  %.not.i4.i7 = icmp eq ptr %51, null
  br i1 %.not.i4.i7, label %_ZN7obj_refI4expr11ast_managerEaSEPS0_.exit8, label %52

52:                                               ; preds = %50
  %53 = getelementptr inbounds nuw i8, ptr %3, i64 8
  %54 = load ptr, ptr %53, align 8, !tbaa !166
  %55 = getelementptr inbounds nuw i8, ptr %51, i64 8
  %56 = load i32, ptr %55, align 4, !tbaa !125
  %57 = add i32 %56, -1
  store i32 %57, ptr %55, align 4, !tbaa !125
  %58 = icmp eq i32 %57, 0
  br i1 %58, label %59, label %_ZN7obj_refI4expr11ast_managerEaSEPS0_.exit8

59:                                               ; preds = %52
  tail call void @_ZN11ast_manager11delete_nodeEP3ast(ptr noundef nonnull align 8 dereferenceable(976) %54, ptr noundef nonnull %51)
  br label %_ZN7obj_refI4expr11ast_managerEaSEPS0_.exit8

_ZN7obj_refI4expr11ast_managerEaSEPS0_.exit8:     ; preds = %50, %52, %59
  store ptr %.0152432, ptr %3, align 8, !tbaa !164
  %.not.i9 = icmp eq ptr %.02631, null
  br i1 %.not.i9, label %63, label %_ZN11ast_manager7inc_refEP3ast.exit.i10

_ZN11ast_manager7inc_refEP3ast.exit.i10:          ; preds = %_ZN7obj_refI4expr11ast_managerEaSEPS0_.exit8
  %60 = getelementptr inbounds nuw i8, ptr %.02631, i64 8
  %61 = load i32, ptr %60, align 4, !tbaa !125
  %62 = add i32 %61, 1
  store i32 %62, ptr %60, align 4, !tbaa !125
  br label %63

63:                                               ; preds = %_ZN11ast_manager7inc_refEP3ast.exit.i10, %_ZN7obj_refI4expr11ast_managerEaSEPS0_.exit8
  %64 = load ptr, ptr %4, align 8, !tbaa !164
  %.not.i4.i11 = icmp eq ptr %64, null
  br i1 %.not.i4.i11, label %_ZN7obj_refI4expr11ast_managerEaSEPS0_.exit12, label %65

65:                                               ; preds = %63
  %66 = getelementptr inbounds nuw i8, ptr %4, i64 8
  %67 = load ptr, ptr %66, align 8, !tbaa !166
  %68 = getelementptr inbounds nuw i8, ptr %64, i64 8
  %69 = load i32, ptr %68, align 4, !tbaa !125
  %70 = add i32 %69, -1
  store i32 %70, ptr %68, align 4, !tbaa !125
  %71 = icmp eq i32 %70, 0
  br i1 %71, label %72, label %_ZN7obj_refI4expr11ast_managerEaSEPS0_.exit12

72:                                               ; preds = %65
  tail call void @_ZN11ast_manager11delete_nodeEP3ast(ptr noundef nonnull align 8 dereferenceable(976) %67, ptr noundef nonnull %64)
  br label %_ZN7obj_refI4expr11ast_managerEaSEPS0_.exit12

_ZN7obj_refI4expr11ast_managerEaSEPS0_.exit12:    ; preds = %63, %65, %72
  store ptr %.02631, ptr %4, align 8, !tbaa !164
  ret void
}